; Function Attrs: mustprogress uwtable
define internal noundef i32 @_ZL23u_printf_double_handlerPK23u_printf_stream_handlerPvP13ULocaleBundlePK18u_printf_spec_infoPK9ufmt_args(ptr noundef readonly captures(none) %0, ptr noundef %1, ptr noundef %2, ptr noundef %3, ptr noundef readonly captures(none) %4) #0 {
  %6 = alloca [8 x i16], align 16
  %7 = alloca [1024 x i16], align 16
  %8 = alloca [1024 x i16], align 16
  %9 = alloca i32, align 4
  %10 = alloca i32, align 4
  %11 = load double, ptr %4, align 8, !tbaa !20
  call void @llvm.lifetime.start.p0(i64 2048, ptr nonnull %7) #9
  call void @llvm.lifetime.start.p0(i64 2048, ptr nonnull %8) #9
  call void @llvm.lifetime.start.p0(i64 4, ptr nonnull %9) #9
  store i32 0, ptr %9, align 4, !tbaa !65
  store i16 0, ptr %8, align 16, !tbaa !12
  %12 = tail call ptr @u_locbund_getNumberFormat_77(ptr noundef %2, i32 noundef 1)
  %13 = icmp eq ptr %12, null
  br i1 %13, label %34, label %14

14:                                               ; preds = %5
  %15 = tail call i32 @unum_getAttribute_77(ptr noundef nonnull %12, i32 noundef 7)
  %16 = tail call i32 @unum_getAttribute_77(ptr noundef nonnull %12, i32 noundef 6)
  %17 = load i32, ptr %3, align 4, !tbaa !42
  %.not = icmp eq i32 %17, -1
  %. = select i1 %.not, i32 6, i32 %17
  tail call void @unum_setAttribute_77(ptr noundef nonnull %12, i32 noundef 8, i32 noundef %.)
  %18 = getelementptr inbounds nuw i8, ptr %3, i64 17
  %19 = load i8, ptr %18, align 1, !tbaa !47
  %.not31 = icmp eq i8 %19, 0
  br i1 %.not31, label %_ZL17u_printf_set_signPPvPK18u_printf_spec_infoPDsPiP10UErrorCode.exit, label %20

20:                                               ; preds = %14
  %21 = call i32 @unum_getTextAttribute_77(ptr noundef nonnull %12, i32 noundef 0, ptr noundef nonnull %8, i32 noundef 2048, ptr noundef nonnull %9)
  %22 = getelementptr inbounds nuw i8, ptr %3, i64 15
  %23 = load i8, ptr %22, align 1, !tbaa !48
  %.not14.i = icmp eq i8 %23, 0
  br i1 %.not14.i, label %25, label %24

24:                                               ; preds = %20
  call void @unum_setTextAttribute_77(ptr noundef nonnull %12, i32 noundef 0, ptr noundef nonnull @_ZL9gSpaceStr, i32 noundef 1, ptr noundef nonnull %9)
  br label %_ZL17u_printf_set_signPPvPK18u_printf_spec_infoPDsPiP10UErrorCode.exit

25:                                               ; preds = %20
  call void @llvm.lifetime.start.p0(i64 16, ptr nonnull %6) #9
  %26 = call i32 @unum_getSymbol_77(ptr noundef nonnull %12, i32 noundef 7, ptr noundef nonnull %6, i32 noundef 8, ptr noundef nonnull %9)
  call void @unum_setTextAttribute_77(ptr noundef nonnull %12, i32 noundef 0, ptr noundef nonnull %6, i32 noundef %26, ptr noundef nonnull %9)
  call void @llvm.lifetime.end.p0(i64 16, ptr nonnull %6) #9
  br label %_ZL17u_printf_set_signPPvPK18u_printf_spec_infoPDsPiP10UErrorCode.exit

_ZL17u_printf_set_signPPvPK18u_printf_spec_infoPDsPiP10UErrorCode.exit: ; preds = %25, %24, %14
  %.0 = phi i32 [ 2048, %14 ], [ %21, %24 ], [ %21, %25 ]
  %27 = call i32 @unum_formatDouble_77(ptr noundef nonnull %12, double noundef %11, ptr noundef nonnull %7, i32 noundef 1024, ptr noundef null, ptr noundef nonnull %9)
  %28 = load i32, ptr %9, align 4, !tbaa !65
  %.inv = icmp sgt i32 %28, 0
  %spec.select = select i1 %.inv, i32 0, i32 %27
  call void @unum_setAttribute_77(ptr noundef nonnull %12, i32 noundef 7, i32 noundef %15)
  call void @unum_setAttribute_77(ptr noundef nonnull %12, i32 noundef 6, i32 noundef %16)
  %29 = load i8, ptr %18, align 1, !tbaa !47
  %.not33 = icmp eq i8 %29, 0
  br i1 %.not33, label %30, label %_ZL19u_printf_reset_signPPvPK18u_printf_spec_infoPDsPiP10UErrorCode.exit

_ZL19u_printf_reset_signPPvPK18u_printf_spec_infoPDsPiP10UErrorCode.exit: ; preds = %_ZL17u_printf_set_signPPvPK18u_printf_spec_infoPDsPiP10UErrorCode.exit
  call void @llvm.lifetime.start.p0(i64 4, ptr nonnull %10) #9
  store i32 0, ptr %10, align 4, !tbaa !65
  call void @unum_setTextAttribute_77(ptr noundef nonnull %12, i32 noundef 0, ptr noundef nonnull %8, i32 noundef %.0, ptr noundef nonnull %10)
  call void @llvm.lifetime.end.p0(i64 4, ptr nonnull %10) #9
  br label %30

30:                                               ; preds = %_ZL19u_printf_reset_signPPvPK18u_printf_spec_infoPDsPiP10UErrorCode.exit, %_ZL17u_printf_set_signPPvPK18u_printf_spec_infoPDsPiP10UErrorCode.exit
  %31 = getelementptr inbounds nuw i8, ptr %0, i64 8
  %32 = load ptr, ptr %31, align 8, !tbaa !64
  %33 = call noundef i32 %32(ptr noundef %1, ptr noundef nonnull %3, ptr noundef nonnull %7, i32 noundef %spec.select)
  br label %34

34:                                               ; preds = %5, %30
  %.027 = phi i32 [ %33, %30 ], [ 0, %5 ]
  call void @llvm.lifetime.end.p0(i64 4, ptr nonnull %9) #9
  call void @llvm.lifetime.end.p0(i64 2048, ptr nonnull %8) #9
  call void @llvm.lifetime.end.p0(i64 2048, ptr nonnull %7) #9
  ret i32 %.027
}